; Function Attrs: mustprogress uwtable
define internal noundef ptr @"_ZZN4pkpy15__init_builtinsEPNS_2VMEEN4$_158__invokeES1_PNS_8PyObjectES4_"(ptr noundef %0, ptr noundef %1, ptr noundef %2) #4 align 2 {
  %4 = ptrtoint ptr %2 to i64
  %5 = and i64 %4, 3
  switch i64 %5, label %"_ZZN4pkpy15__init_builtinsEPNS_2VMEENK4$_15clES1_PNS_8PyObjectES4_.exit" [
    i64 2, label %6
    i64 0, label %_ZN4pkpy11is_heap_intEPNS_8PyObjectE.exit.i.i
  ]

6:                                                ; preds = %3
  %7 = ashr i64 %4, 2
  br label %13

_ZN4pkpy11is_heap_intEPNS_8PyObjectE.exit.i.i:    ; preds = %3
  %8 = getelementptr inbounds i8, ptr %2, i64 10
  %9 = load i16, ptr %8, align 2
  switch i16 %9, label %"_ZZN4pkpy15__init_builtinsEPNS_2VMEENK4$_15clES1_PNS_8PyObjectES4_.exit" [
    i16 2, label %10
    i16 3, label %17
  ]

10:                                               ; preds = %_ZN4pkpy11is_heap_intEPNS_8PyObjectE.exit.i.i
  %11 = getelementptr inbounds i8, ptr %2, i64 24
  %12 = load i64, ptr %11, align 8
  br label %13

13:                                               ; preds = %10, %6
  %.03.ph.i = phi i64 [ %7, %6 ], [ %12, %10 ]
  %14 = tail call noundef double @_ZN4pkpy18_py_cast__internalIdLb0EEET_PNS_2VMEPNS_8PyObjectE(ptr noundef %0, ptr noundef %1)
  %15 = sitofp i64 %.03.ph.i to double
  %16 = fcmp oge double %14, %15
  %.in.v.i.i = select i1 %16, i64 264528, i64 264536
  br label %"_ZZN4pkpy15__init_builtinsEPNS_2VMEENK4$_15clES1_PNS_8PyObjectES4_.exit"

17:                                               ; preds = %_ZN4pkpy11is_heap_intEPNS_8PyObjectE.exit.i.i
  %18 = tail call noundef double @_ZN4pkpy18_py_cast__internalIdLb0EEET_PNS_2VMEPNS_8PyObjectE(ptr noundef %0, ptr noundef %1)
  %19 = tail call noundef double @_ZN4pkpy18_py_cast__internalIdLb0EEET_PNS_2VMEPNS_8PyObjectE(ptr noundef %0, ptr noundef nonnull %2)
  %20 = fcmp oge double %18, %19
  %.in.v.i12.i = select i1 %20, i64 264528, i64 264536
  br label %"_ZZN4pkpy15__init_builtinsEPNS_2VMEENK4$_15clES1_PNS_8PyObjectES4_.exit"

"_ZZN4pkpy15__init_builtinsEPNS_2VMEENK4$_15clES1_PNS_8PyObjectES4_.exit": ; preds = %3, %_ZN4pkpy11is_heap_intEPNS_8PyObjectE.exit.i.i, %13, %17
  %.sink.i = phi i64 [ %.in.v.i12.i, %17 ], [ %.in.v.i.i, %13 ], [ 264544, %_ZN4pkpy11is_heap_intEPNS_8PyObjectE.exit.i.i ], [ 264544, %3 ]
  %21 = getelementptr inbounds i8, ptr %0, i64 %.sink.i
  %.0.i = load ptr, ptr %21, align 8
  ret ptr %.0.i
}